target datalayout = "e-m:e-p270:32:32-p271:32:32-p272:64:64-i64:64-i128:128-f80:128-n8:16:32:64-S128"
target triple = "x86_64-pc-linux-gnu"

%struct.mbedtls_chachapoly_context = type { %struct.mbedtls_chacha20_context, %struct.mbedtls_poly1305_context, i64, i64, i32, i32 }
%struct.mbedtls_chacha20_context = type { [16 x i32], [64 x i8], i64 }
%struct.mbedtls_poly1305_context = type { [4 x i32], [4 x i32], [5 x i32], [16 x i8], i64 }

; Function Attrs: nounwind uwtable
define hidden void @mbedtls_chachapoly_free(ptr noundef %0) #0 {
  %2 = alloca ptr, align 8
  store ptr %0, ptr %2, align 8, !tbaa !3
  %3 = load ptr, ptr %2, align 8, !tbaa !3
  %4 = icmp eq ptr %3, null
  br i1 %4, label %5, label %6

5:                                                ; preds = %1
  br label %19

6:                                                ; preds = %1
  %7 = load ptr, ptr %2, align 8, !tbaa !3
  %8 = getelementptr inbounds nuw %struct.mbedtls_chachapoly_context, ptr %7, i32 0, i32 0
  call void @mbedtls_chacha20_free(ptr noundef %8)
  %9 = load ptr, ptr %2, align 8, !tbaa !3
  %10 = getelementptr inbounds nuw %struct.mbedtls_chachapoly_context, ptr %9, i32 0, i32 1
  call void @mbedtls_poly1305_free(ptr noundef %10)
  %11 = load ptr, ptr %2, align 8, !tbaa !3
  %12 = getelementptr inbounds nuw %struct.mbedtls_chachapoly_context, ptr %11, i32 0, i32 2
  store i64 0, ptr %12, align 8, !tbaa !8
  %13 = load ptr, ptr %2, align 8, !tbaa !3
  %14 = getelementptr inbounds nuw %struct.mbedtls_chachapoly_context, ptr %13, i32 0, i32 3
  store i64 0, ptr %14, align 8, !tbaa !14
  %15 = load ptr, ptr %2, align 8, !tbaa !3
  %16 = getelementptr inbounds nuw %struct.mbedtls_chachapoly_context, ptr %15, i32 0, i32 4
  store i32 0, ptr %16, align 8, !tbaa !15
  %17 = load ptr, ptr %2, align 8, !tbaa !3
  %18 = getelementptr inbounds nuw %struct.mbedtls_chachapoly_context, ptr %17, i32 0, i32 5
  store i32 0, ptr %18, align 4, !tbaa !16
  br label %19

19:                                               ; preds = %6, %5
  ret void
}