; Function Attrs: nounwind uwtable
define hidden void @mbedtls_chachapoly_free(ptr noundef %0) local_unnamed_addr #0 {
  %2 = icmp eq ptr %0, null
  br i1 %2, label %6, label %3

3:                                                ; preds = %1
  tail call void @mbedtls_chacha20_free(ptr noundef nonnull %0) #7
  %4 = getelementptr inbounds nuw i8, ptr %0, i64 136
  tail call void @mbedtls_poly1305_free(ptr noundef nonnull %4) #7
  %5 = getelementptr inbounds nuw i8, ptr %0, i64 216
  tail call void @llvm.memset.p0.i64(ptr noundef nonnull align 8 dereferenceable(24) %5, i8 0, i64 24, i1 false)
  br label %6

6:                                                ; preds = %1, %3
  ret void
}